; Function Attrs: nounwind uwtable
define internal void @apply_long_stop_window(ptr noundef readonly captures(none) %0, ptr noundef initializes((16656, 18448)) %1, ptr noundef %2) #3 {
  %4 = getelementptr inbounds nuw i8, ptr %1, i64 12
  %5 = load i8, ptr %4, align 4, !tbaa !66
  %.not = icmp eq i8 %5, 0
  %6 = select i1 %.not, ptr @ff_sine_1024, ptr @ff_aac_kbd_long_1024
  %7 = getelementptr inbounds nuw i8, ptr %1, i64 13
  %8 = load i8, ptr %7, align 1, !tbaa !66
  %.not14 = icmp eq i8 %8, 0
  %9 = select i1 %.not14, ptr @ff_sine_128, ptr @ff_aac_kbd_short_128
  %10 = getelementptr inbounds nuw i8, ptr %1, i64 16656
  tail call void @llvm.memset.p0.i64(ptr noundef nonnull align 4 dereferenceable(1792) %10, i8 0, i64 1792, i1 false)
  %11 = load ptr, ptr %0, align 8, !tbaa !227
  %12 = getelementptr inbounds nuw i8, ptr %1, i64 18448
  %13 = getelementptr inbounds nuw i8, ptr %2, i64 1792
  tail call void %11(ptr noundef nonnull %12, ptr noundef nonnull %13, ptr noundef nonnull %9, i32 noundef 128) #11
  %14 = getelementptr inbounds nuw i8, ptr %1, i64 18960
  %15 = getelementptr inbounds nuw i8, ptr %2, i64 2304
  tail call void @llvm.memcpy.p0.p0.i64(ptr noundef nonnull align 4 dereferenceable(1792) %14, ptr noundef nonnull align 4 dereferenceable(1792) %15, i64 1792, i1 false)
  %16 = getelementptr inbounds nuw i8, ptr %0, i64 56
  %17 = load ptr, ptr %16, align 8, !tbaa !229
  %18 = getelementptr inbounds nuw i8, ptr %1, i64 20752
  %19 = getelementptr inbounds nuw i8, ptr %2, i64 4096
  tail call void %17(ptr noundef nonnull %18, ptr noundef nonnull %19, ptr noundef nonnull %6, i32 noundef 1024) #11
  ret void
}